target datalayout = "e-m:e-p270:32:32-p271:32:32-p272:64:64-i64:64-i128:128-f80:128-n8:16:32:64-S128"
target triple = "x86_64-pc-linux-gnu"

%struct.RARHeaderDataEx = type <{ [1024 x i8], [1024 x i32], [1024 x i8], [1024 x i32], i32, i32, i32, i32, i32, i32, i32, i32, i32, i32, i32, ptr, i32, i32, i32, i32, i32, [32 x i8], i32, ptr, i32, i32, i32, i32, i32, i32, i32, i32, [988 x i32] }>
%struct.RARHeaderData = type <{ [260 x i8], [260 x i8], i32, i32, i32, i32, i32, i32, i32, i32, i32, ptr, i32, i32, i32 }>

; Function Attrs: mustprogress uwtable
define i32 @RARReadHeader(ptr noundef %0, ptr noundef %1) #0 {
  %3 = alloca ptr, align 8
  %4 = alloca ptr, align 8
  %5 = alloca %struct.RARHeaderDataEx, align 1
  %6 = alloca i32, align 4
  store ptr %0, ptr %3, align 8
  store ptr %1, ptr %4, align 8
  call void @llvm.memset.p0.i64(ptr align 1 %5, i8 0, i64 14340, i1 false)
  %7 = load ptr, ptr %3, align 8
  %8 = call i32 @RARReadHeaderEx(ptr noundef %7, ptr noundef %5)
  store i32 %8, ptr %6, align 4
  %9 = load ptr, ptr %4, align 8
  %10 = getelementptr inbounds %struct.RARHeaderData, ptr %9, i32 0, i32 0
  %11 = getelementptr inbounds [260 x i8], ptr %10, i64 0, i64 0
  %12 = getelementptr inbounds %struct.RARHeaderDataEx, ptr %5, i32 0, i32 0
  %13 = getelementptr inbounds [1024 x i8], ptr %12, i64 0, i64 0
  call void @_Z8strncpyzPcPKcm(ptr noundef %11, ptr noundef %13, i64 noundef 260)
  %14 = load ptr, ptr %4, align 8
  %15 = getelementptr inbounds %struct.RARHeaderData, ptr %14, i32 0, i32 1
  %16 = getelementptr inbounds [260 x i8], ptr %15, i64 0, i64 0
  %17 = getelementptr inbounds %struct.RARHeaderDataEx, ptr %5, i32 0, i32 2
  %18 = getelementptr inbounds [1024 x i8], ptr %17, i64 0, i64 0
  call void @_Z8strncpyzPcPKcm(ptr noundef %16, ptr noundef %18, i64 noundef 260)
  %19 = getelementptr inbounds %struct.RARHeaderDataEx, ptr %5, i32 0, i32 4
  %20 = load i32, ptr %19, align 1
  %21 = load ptr, ptr %4, align 8
  %22 = getelementptr inbounds %struct.RARHeaderData, ptr %21, i32 0, i32 2
  store i32 %20, ptr %22, align 1
  %23 = getelementptr inbounds %struct.RARHeaderDataEx, ptr %5, i32 0, i32 5
  %24 = load i32, ptr %23, align 1
  %25 = load ptr, ptr %4, align 8
  %26 = getelementptr inbounds %struct.RARHeaderData, ptr %25, i32 0, i32 3
  store i32 %24, ptr %26, align 1
  %27 = getelementptr inbounds %struct.RARHeaderDataEx, ptr %5, i32 0, i32 7
  %28 = load i32, ptr %27, align 1
  %29 = load ptr, ptr %4, align 8
  %30 = getelementptr inbounds %struct.RARHeaderData, ptr %29, i32 0, i32 4
  store i32 %28, ptr %30, align 1
  %31 = getelementptr inbounds %struct.RARHeaderDataEx, ptr %5, i32 0, i32 9
  %32 = load i32, ptr %31, align 1
  %33 = load ptr, ptr %4, align 8
  %34 = getelementptr inbounds %struct.RARHeaderData, ptr %33, i32 0, i32 5
  store i32 %32, ptr %34, align 1
  %35 = getelementptr inbounds %struct.RARHeaderDataEx, ptr %5, i32 0, i32 10
  %36 = load i32, ptr %35, align 1
  %37 = load ptr, ptr %4, align 8
  %38 = getelementptr inbounds %struct.RARHeaderData, ptr %37, i32 0, i32 6
  store i32 %36, ptr %38, align 1
  %39 = getelementptr inbounds %struct.RARHeaderDataEx, ptr %5, i32 0, i32 11
  %40 = load i32, ptr %39, align 1
  %41 = load ptr, ptr %4, align 8
  %42 = getelementptr inbounds %struct.RARHeaderData, ptr %41, i32 0, i32 7
  store i32 %40, ptr %42, align 1
  %43 = getelementptr inbounds %struct.RARHeaderDataEx, ptr %5, i32 0, i32 12
  %44 = load i32, ptr %43, align 1
  %45 = load ptr, ptr %4, align 8
  %46 = getelementptr inbounds %struct.RARHeaderData, ptr %45, i32 0, i32 8
  store i32 %44, ptr %46, align 1
  %47 = getelementptr inbounds %struct.RARHeaderDataEx, ptr %5, i32 0, i32 13
  %48 = load i32, ptr %47, align 1
  %49 = load ptr, ptr %4, align 8
  %50 = getelementptr inbounds %struct.RARHeaderData, ptr %49, i32 0, i32 9
  store i32 %48, ptr %50, align 1
  %51 = getelementptr inbounds %struct.RARHeaderDataEx, ptr %5, i32 0, i32 14
  %52 = load i32, ptr %51, align 1
  %53 = load ptr, ptr %4, align 8
  %54 = getelementptr inbounds %struct.RARHeaderData, ptr %53, i32 0, i32 10
  store i32 %52, ptr %54, align 1
  %55 = load ptr, ptr %4, align 8
  %56 = getelementptr inbounds %struct.RARHeaderData, ptr %55, i32 0, i32 13
  store i32 0, ptr %56, align 1
  %57 = load ptr, ptr %4, align 8
  %58 = getelementptr inbounds %struct.RARHeaderData, ptr %57, i32 0, i32 14
  store i32 0, ptr %58, align 1
  %59 = load i32, ptr %6, align 4
  ret i32 %59
}